; Function Attrs: nounwind uwtable
define noalias nonnull ptr @l___private_Std_Data_DTreeMap_Internal_Balancing_0__Std_DTreeMap_Internal_Impl_balanceL_match__3_splitter___boxed(ptr noundef readnone captures(none) %0, ptr noundef readnone captures(none) %1, ptr noundef %2, ptr noundef %3, ptr noundef %4, ptr noundef %5, ptr noundef %6, ptr noundef %7, ptr noundef %8, ptr noundef %9, ptr noundef readnone captures(none) %10) local_unnamed_addr #0 {
  tail call void @lean_inc_heartbeat() #6
  %12 = tail call noalias ptr @mi_malloc_small(i64 noundef 24) #6
  %13 = icmp eq ptr %12, null
  br i1 %13, label %14, label %l___private_Std_Data_DTreeMap_Internal_Balancing_0__Std_DTreeMap_Internal_Impl_balanceL_match__3_splitter.exit

14:                                               ; preds = %11
  tail call void @lean_internal_panic_out_of_memory() #7
  unreachable

l___private_Std_Data_DTreeMap_Internal_Balancing_0__Std_DTreeMap_Internal_Impl_balanceL_match__3_splitter.exit: ; preds = %11
  %15 = getelementptr inbounds nuw i8, ptr %12, i64 4
  store i32 1, ptr %12, align 4, !tbaa !8
  store i32 -184549352, ptr %15, align 4
  %16 = getelementptr inbounds nuw i8, ptr %12, i64 8
  store ptr @l___private_Std_Data_DTreeMap_Internal_Balancing_0__Std_DTreeMap_Internal_Impl_balanceL_match__3_splitter___rarg, ptr %16, align 8, !tbaa !4
  %17 = getelementptr inbounds nuw i8, ptr %12, i64 16
  store i16 7, ptr %17, align 8, !tbaa !18
  %18 = getelementptr inbounds nuw i8, ptr %12, i64 18
  store i16 0, ptr %18, align 2, !tbaa !18
  %19 = ptrtoint ptr %9 to i64
  %20 = and i64 %19, 1
  %.not = icmp eq i64 %20, 0
  br i1 %.not, label %21, label %lean_dec.exit26

21:                                               ; preds = %l___private_Std_Data_DTreeMap_Internal_Balancing_0__Std_DTreeMap_Internal_Impl_balanceL_match__3_splitter.exit
  %22 = load i32, ptr %9, align 4, !tbaa !8
  %23 = icmp sgt i32 %22, 1
  br i1 %23, label %24, label %26, !prof !11

24:                                               ; preds = %21
  %25 = add nsw i32 %22, -1
  store i32 %25, ptr %9, align 4, !tbaa !8
  br label %lean_dec.exit26

26:                                               ; preds = %21
  %.not.i = icmp eq i32 %22, 0
  br i1 %.not.i, label %lean_dec.exit26, label %27

27:                                               ; preds = %26
  tail call void @lean_dec_ref_cold(ptr noundef nonnull %9) #6
  br label %lean_dec.exit26

lean_dec.exit26:                                  ; preds = %27, %26, %24, %l___private_Std_Data_DTreeMap_Internal_Balancing_0__Std_DTreeMap_Internal_Impl_balanceL_match__3_splitter.exit
  %28 = ptrtoint ptr %8 to i64
  %29 = and i64 %28, 1
  %.not41 = icmp eq i64 %29, 0
  br i1 %.not41, label %30, label %lean_dec.exit25

30:                                               ; preds = %lean_dec.exit26
  %31 = load i32, ptr %8, align 4, !tbaa !8
  %32 = icmp sgt i32 %31, 1
  br i1 %32, label %33, label %35, !prof !11

33:                                               ; preds = %30
  %34 = add nsw i32 %31, -1
  store i32 %34, ptr %8, align 4, !tbaa !8
  br label %lean_dec.exit25

35:                                               ; preds = %30
  %.not.i27 = icmp eq i32 %31, 0
  br i1 %.not.i27, label %lean_dec.exit25, label %36

36:                                               ; preds = %35
  tail call void @lean_dec_ref_cold(ptr noundef nonnull %8) #6
  br label %lean_dec.exit25

lean_dec.exit25:                                  ; preds = %36, %35, %33, %lean_dec.exit26
  %37 = ptrtoint ptr %7 to i64
  %38 = and i64 %37, 1
  %.not42 = icmp eq i64 %38, 0
  br i1 %.not42, label %39, label %lean_dec.exit24

39:                                               ; preds = %lean_dec.exit25
  %40 = load i32, ptr %7, align 4, !tbaa !8
  %41 = icmp sgt i32 %40, 1
  br i1 %41, label %42, label %44, !prof !11

42:                                               ; preds = %39
  %43 = add nsw i32 %40, -1
  store i32 %43, ptr %7, align 4, !tbaa !8
  br label %lean_dec.exit24

44:                                               ; preds = %39
  %.not.i29 = icmp eq i32 %40, 0
  br i1 %.not.i29, label %lean_dec.exit24, label %45

45:                                               ; preds = %44
  tail call void @lean_dec_ref_cold(ptr noundef nonnull %7) #6
  br label %lean_dec.exit24

lean_dec.exit24:                                  ; preds = %45, %44, %42, %lean_dec.exit25
  %46 = ptrtoint ptr %6 to i64
  %47 = and i64 %46, 1
  %.not43 = icmp eq i64 %47, 0
  br i1 %.not43, label %48, label %lean_dec.exit23

48:                                               ; preds = %lean_dec.exit24
  %49 = load i32, ptr %6, align 4, !tbaa !8
  %50 = icmp sgt i32 %49, 1
  br i1 %50, label %51, label %53, !prof !11

51:                                               ; preds = %48
  %52 = add nsw i32 %49, -1
  store i32 %52, ptr %6, align 4, !tbaa !8
  br label %lean_dec.exit23

53:                                               ; preds = %48
  %.not.i31 = icmp eq i32 %49, 0
  br i1 %.not.i31, label %lean_dec.exit23, label %54

54:                                               ; preds = %53
  tail call void @lean_dec_ref_cold(ptr noundef nonnull %6) #6
  br label %lean_dec.exit23

lean_dec.exit23:                                  ; preds = %54, %53, %51, %lean_dec.exit24
  %55 = ptrtoint ptr %5 to i64
  %56 = and i64 %55, 1
  %.not44 = icmp eq i64 %56, 0
  br i1 %.not44, label %57, label %lean_dec.exit22

57:                                               ; preds = %lean_dec.exit23
  %58 = load i32, ptr %5, align 4, !tbaa !8
  %59 = icmp sgt i32 %58, 1
  br i1 %59, label %60, label %62, !prof !11

60:                                               ; preds = %57
  %61 = add nsw i32 %58, -1
  store i32 %61, ptr %5, align 4, !tbaa !8
  br label %lean_dec.exit22

62:                                               ; preds = %57
  %.not.i33 = icmp eq i32 %58, 0
  br i1 %.not.i33, label %lean_dec.exit22, label %63

63:                                               ; preds = %62
  tail call void @lean_dec_ref_cold(ptr noundef nonnull %5) #6
  br label %lean_dec.exit22

lean_dec.exit22:                                  ; preds = %63, %62, %60, %lean_dec.exit23
  %64 = ptrtoint ptr %4 to i64
  %65 = and i64 %64, 1
  %.not45 = icmp eq i64 %65, 0
  br i1 %.not45, label %66, label %lean_dec.exit21

66:                                               ; preds = %lean_dec.exit22
  %67 = load i32, ptr %4, align 4, !tbaa !8
  %68 = icmp sgt i32 %67, 1
  br i1 %68, label %69, label %71, !prof !11

69:                                               ; preds = %66
  %70 = add nsw i32 %67, -1
  store i32 %70, ptr %4, align 4, !tbaa !8
  br label %lean_dec.exit21

71:                                               ; preds = %66
  %.not.i35 = icmp eq i32 %67, 0
  br i1 %.not.i35, label %lean_dec.exit21, label %72

72:                                               ; preds = %71
  tail call void @lean_dec_ref_cold(ptr noundef nonnull %4) #6
  br label %lean_dec.exit21

lean_dec.exit21:                                  ; preds = %72, %71, %69, %lean_dec.exit22
  %73 = ptrtoint ptr %3 to i64
  %74 = and i64 %73, 1
  %.not46 = icmp eq i64 %74, 0
  br i1 %.not46, label %75, label %lean_dec.exit20

75:                                               ; preds = %lean_dec.exit21
  %76 = load i32, ptr %3, align 4, !tbaa !8
  %77 = icmp sgt i32 %76, 1
  br i1 %77, label %78, label %80, !prof !11

78:                                               ; preds = %75
  %79 = add nsw i32 %76, -1
  store i32 %79, ptr %3, align 4, !tbaa !8
  br label %lean_dec.exit20

80:                                               ; preds = %75
  %.not.i37 = icmp eq i32 %76, 0
  br i1 %.not.i37, label %lean_dec.exit20, label %81

81:                                               ; preds = %80
  tail call void @lean_dec_ref_cold(ptr noundef nonnull %3) #6
  br label %lean_dec.exit20

lean_dec.exit20:                                  ; preds = %81, %80, %78, %lean_dec.exit21
  %82 = ptrtoint ptr %2 to i64
  %83 = and i64 %82, 1
  %.not47 = icmp eq i64 %83, 0
  br i1 %.not47, label %84, label %lean_dec.exit

84:                                               ; preds = %lean_dec.exit20
  %85 = load i32, ptr %2, align 4, !tbaa !8
  %86 = icmp sgt i32 %85, 1
  br i1 %86, label %87, label %89, !prof !11

87:                                               ; preds = %84
  %88 = add nsw i32 %85, -1
  store i32 %88, ptr %2, align 4, !tbaa !8
  br label %lean_dec.exit

89:                                               ; preds = %84
  %.not.i39 = icmp eq i32 %85, 0
  br i1 %.not.i39, label %lean_dec.exit, label %90

90:                                               ; preds = %89
  tail call void @lean_dec_ref_cold(ptr noundef nonnull %2) #6
  br label %lean_dec.exit

lean_dec.exit:                                    ; preds = %90, %89, %87, %lean_dec.exit20
  ret ptr %12
}